; Function Attrs: mustprogress nounwind uwtable
define dso_local void @_ZN4node9inspector19MainThreadInterface12RemoveObjectEi(ptr noundef nonnull align 8 dereferenceable(352) %this, i32 noundef %id) local_unnamed_addr #3 align 2 {
entry:
  %id.addr = alloca i32, align 4
  store i32 %id, ptr %id.addr, align 4
  %managed_objects_ = getelementptr inbounds i8, ptr %this, i64 296
  %call.i.i = call noundef i64 @_ZNSt10_HashtableIiSt4pairIKiSt10unique_ptrIN4node9inspector9DeletableESt14default_deleteIS5_EEESaIS9_ENSt8__detail10_Select1stESt8equal_toIiESt4hashIiENSB_18_Mod_range_hashingENSB_20_Default_ranged_hashENSB_20_Prime_rehash_policyENSB_17_Hashtable_traitsILb0ELb0ELb1EEEE8_M_eraseESt17integral_constantIbLb1EERS1_(ptr noundef nonnull align 8 dereferenceable(56) %managed_objects_, ptr noundef nonnull align 4 dereferenceable(4) %id.addr)
  %cmp.not = icmp eq i64 %call.i.i, 1
  br i1 %cmp.not, label %do.end5, label %do.body4

do.body4:                                         ; preds = %entry
  call void @_ZN4node6AssertERKNS_13AssertionInfoE(ptr noundef nonnull align 8 dereferenceable(24) @_ZZN4node9inspector19MainThreadInterface12RemoveObjectEiE4args) #20
  call void @abort() #21
  unreachable

do.end5:                                          ; preds = %entry
  ret void
}